Certificate:
    Data:
        Version: 3 (0x2)
        Serial Number:
            1e:57:13:9d:75:dd:78:30:75:41:af:27:07:cb:d8:26
        Signature Algorithm: sha256WithRSAEncryption
        Issuer: CN=Easy-RSA CA
        Validity
            Not Before: Oct  9 21:45:18 2016 GMT
            Not After : Oct  7 21:45:18 2026 GMT
        Subject: CN=server@foo.bar.com
        Subject Public Key Info:
            Public Key Algorithm: rsaEncryption
            RSA Public Key: (2048 bit)
                Modulus (2048 bit):
                    00:b1:15:f2:11:f6:73:9c:6e:fa:6d:ec:4a:08:50:
                    0c:d9:60:6b:9c:98:dd:19:13:34:ce:40:b7:8a:2d:
                    2f:ad:bc:ac:9b:a0:b2:73:91:57:c3:52:9e:ae:18:
                    43:20:31:da:db:59:08:09:28:91:40:b9:35:48:41:
                    4a:c8:9e:9b:1d:bd:73:9f:d1:1a:e6:f1:0c:0f:19:
                    79:38:73:cd:9d:e5:c2:82:ee:4d:36:dc:4d:7f:37:
                    f3:61:3c:25:67:f0:90:4f:1a:81:e8:96:21:73:6e:
                    1d:09:60:f4:5b:46:c1:4d:45:fe:b4:13:1c:0a:c3:
                    39:c2:29:f7:10:3a:ea:37:83:e7:56:f5:8b:18:03:
                    75:31:97:80:8b:ae:f8:aa:a4:dd:95:c1:9c:68:c7:
                    83:b3:27:a3:cb:f1:c8:a4:a7:e0:5a:68:48:ba:94:
                    70:05:00:d9:32:96:74:2f:24:5a:74:05:a5:10:56:
                    dc:39:62:0e:8f:4a:ca:34:69:a0:ee:f9:26:50:c0:
                    f3:dc:64:80:62:7a:4e:ed:2f:45:77:37:e5:c5:61:
                    66:71:36:bc:dd:07:e2:83:98:cc:6d:39:71:18:28:
                    25:82:a2:7a:9b:40:cb:5f:28:49:87:a9:7a:97:87:
                    0a:6a:a6:bb:fc:ad:49:f4:e0:56:16:e0:28:e0:01:
                    0a:91
                Exponent: 65537 (0x10001)
        X509v3 extensions:
            X509v3 Basic Constraints: 
                CA:FALSE
            X509v3 Subject Key Identifier: 
                B1:A1:88:77:F2:C1:02:4D:63:E9:64:E8:58:35:98:A0:F1:42:72:A1
            X509v3 Authority Key Identifier: 
                keyid:9B:02:B3:F3:62:A9:1F:B2:56:05:B1:85:1C:7D:A7:D0:72:24:2C:9E
                DirName:/CN=Easy-RSA CA
                serial:A8:B7:12:A6:17:44:33:92

            X509v3 Extended Key Usage: 
                TLS Web Server Authentication
            X509v3 Key Usage: 
                Digital Signature, Key Encipherment
    Signature Algorithm: sha256WithRSAEncryption
        c4:01:7a:91:34:8b:28:6c:a0:66:c0:c6:6e:7d:ee:41:8e:1c:
        6a:69:6e:92:3b:df:a2:29:af:91:1d:e6:d6:de:eb:6c:cc:b1:
        e8:45:6c:3b:b4:ad:20:86:db:15:27:85:e4:71:31:21:7f:18:
        74:95:26:d3:db:29:1d:7b:e3:5c:0e:cb:1d:af:4c:7d:d7:d1:
        27:9c:e1:01:4b:b2:8a:1f:7b:f6:e2:b3:57:09:12:37:fb:55:
        62:79:8b:21:a3:db:b3:0d:24:45:b9:4e:40:7f:c3:c2:0a:e8:
        ea:93:95:43:84:fc:4e:ef:ff:44:9a:3f:e6:d1:39:6b:cd:04:
        17:1b:56:75:30:20:51:bd:82:6c:59:3d:ed:13:69:af:9d:97:
        0c:38:89:32:2c:88:b0:54:37:a5:d6:85:59:d6:90:5b:50:bf:
        64:7f:e2:c0:e6:01:f6:4e:9d:e6:e8:e7:08:14:55:17:28:d9:
        1e:08:15:6c:bc:08:7d:b8:43:8b:b1:17:ac:13:de:43:3b:46:
        7a:4b:18:33:a1:f7:18:c5:36:c3:9d:a5:95:fa:86:c1:dc:2f:
        73:34:8a:9b:68:37:4f:02:d3:ff:d3:0d:20:9c:d0:a8:be:35:
        fa:d9:53:42:63:ad:ba:85:1a:19:38:eb:6d:c0:41:54:b6:1c:
        3d:e6:91:86
-----BEGIN CERTIFICATE-----
MIIDVTCCAj2gAwIBAgIQHlcTnXXdeDB1Qa8nB8vYJjANBgkqhkiG9w0BAQsFADAW
MRQwEgYDVQQDDAtFYXN5LVJTQSBDQTAeFw0xNjEwMDkyMTQ1MThaFw0yNjEwMDcy
MTQ1MThaMB0xGzAZBgNVBAMMEnNlcnZlckBmb28uYmFyLmNvbTCCASIwDQYJKoZI
hvcNAQEBBQADggEPADCCAQoCggEBALEV8hH2c5xu+m3sSghQDNlga5yY3RkTNM5A
t4otL628rJugsnORV8NSnq4YQyAx2ttZCAkokUC5NUhBSsiemx29c5/RGubxDA8Z
eThzzZ3lwoLuTTbcTX8382E8JWfwkE8ageiWIXNuHQlg9FtGwU1F/rQTHArDOcIp
9xA66jeD51b1ixgDdTGXgIuu+Kqk3ZXBnGjHg7Mno8vxyKSn4FpoSLqUcAUA2TKW
dC8kWnQFpRBW3DliDo9KyjRpoO75JlDA89xkgGJ6Tu0vRXc35cVhZnE2vN0H4oOY
zG05cRgoJYKieptAy18oSYepepeHCmqmu/ytSfTgVhbgKOABCpECAwEAAaOBlzCB
lDAJBgNVHRMEAjAAMB0GA1UdDgQWBBSxoYh38sECTWPpZOhYNZig8UJyoTBGBgNV
HSMEPzA9gBSbArPzYqkfslYFsYUcfafQciQsnqEapBgwFjEUMBIGA1UEAwwLRWFz
eS1SU0EgQ0GCCQCotxKmF0QzkjATBgNVHSUEDDAKBggrBgEFBQcDATALBgNVHQ8E
BAMCBaAwDQYJKoZIhvcNAQELBQADggEBAMQBepE0iyhsoGbAxm597kGOHGppbpI7
36Ipr5Ed5tbe62zMsehFbDu0rSCG2xUnheRxMSF/GHSVJtPbKR1741wOyx2vTH3X
0Sec4QFLsoofe/bis1cJEjf7VWJ5iyGj27MNJEW5TkB/w8IK6OqTlUOE/E7v/0Sa
P+bROWvNBBcbVnUwIFG9gmxZPe0Taa+dlww4iTIsiLBUN6XWhVnWkFtQv2R/4sDm
AfZOnebo5wgUVRco2R4IFWy8CH24Q4uxF6wT3kM7RnpLGDOh9xjFNsOdpZX6hsHc
L3M0iptoN08C0//TDSCc0Ki+NfrZU0JjrbqFGhk4623AQVS2HD3mkYY=
-----END CERTIFICATE-----
